; Function Attrs: mustprogress nounwind uwtable
define dso_local void @_ZN5clang4sema14BlockScopeInfoD2Ev(ptr noundef nonnull align 8 dereferenceable(1520) %0) unnamed_addr #0 align 2 {
  store ptr getelementptr inbounds inrange(-16, 16) (i8, ptr @_ZTVN5clang4sema18CapturingScopeInfoE, i64 16), ptr %0, align 8
  %2 = getelementptr inbounds nuw i8, ptr %0, i64 1336
  %3 = tail call noundef i64 @_ZNK4llvm15SmallVectorBaseIjE4sizeEv(ptr noundef nonnull align 8 dereferenceable(16) %2) #13
  %4 = load ptr, ptr %2, align 8
  %5 = getelementptr inbounds i8, ptr %0, i64 1352
  %6 = icmp eq ptr %4, %5
  br i1 %6, label %_ZN5clang4sema18CapturingScopeInfoD2Ev.exit, label %7

7:                                                ; preds = %1
  tail call void @free(ptr noundef %4) #13
  br label %_ZN5clang4sema18CapturingScopeInfoD2Ev.exit

_ZN5clang4sema18CapturingScopeInfoD2Ev.exit:      ; preds = %1, %7
  %8 = getelementptr inbounds nuw i8, ptr %0, i64 1304
  %9 = load ptr, ptr %8, align 8
  %10 = getelementptr inbounds i8, ptr %0, i64 1320
  %11 = load i32, ptr %10, align 8
  %12 = zext i32 %11 to i64
  %13 = shl nuw nsw i64 %12, 4
  tail call void @_ZN4llvm17deallocate_bufferEPvmm(ptr noundef %9, i64 noundef %13, i64 noundef 8) #13
  tail call void @_ZN5clang4sema17FunctionScopeInfoD2Ev(ptr noundef nonnull align 8 dereferenceable(1296) %0) #13
  ret void
}